target datalayout = "e-m:e-p270:32:32-p271:32:32-p272:64:64-i64:64-i128:128-f80:128-n8:16:32:64-S128"
target triple = "x86_64-pc-linux-gnu"

%"class.cv::Size_" = type { i32, i32 }
%"struct.cv::MatSize" = type { ptr }
%"struct.cv::MatStep" = type { ptr, [2 x i64] }
%"class.cv::Mat" = type { i32, i32, i32, i32, ptr, ptr, ptr, ptr, ptr, ptr, %"struct.cv::MatSize", %"struct.cv::MatStep" }
%"class.cv::_InputArray" = type { i32, ptr, %"class.cv::Size_" }
%"class.cv::utils::trace::details::Region" = type <{ ptr, i32, [4 x i8] }>
%"class.cv::_OutputArray" = type { %"class.cv::_InputArray" }

; Function Attrs: inlinehint mustprogress nounwind uwtable
define linkonce_odr hidden void @_ZN2cv5Size_IiEC2Ev(ptr noundef nonnull align 4 dereferenceable(8) %0) unnamed_addr #6 comdat align 2 {
  %2 = alloca ptr, align 8
  store ptr %0, ptr %2, align 8, !tbaa !23
  %3 = load ptr, ptr %2, align 8
  %4 = getelementptr inbounds nuw %"class.cv::Size_", ptr %3, i32 0, i32 0
  store i32 0, ptr %4, align 4, !tbaa !25
  %5 = getelementptr inbounds nuw %"class.cv::Size_", ptr %3, i32 0, i32 1
  store i32 0, ptr %5, align 4, !tbaa !26
  ret void
}

; Function Attrs: inlinehint mustprogress nounwind uwtable
define linkonce_odr hidden void @_ZN2cv11_InputArray4initEiPKv(ptr noundef nonnull align 8 dereferenceable(24) %0, i32 noundef %1, ptr noundef %2) #6 comdat align 2 {
  %4 = alloca ptr, align 8
  %5 = alloca i32, align 4
  %6 = alloca ptr, align 8
  store ptr %0, ptr %4, align 8, !tbaa !36
  store i32 %1, ptr %5, align 4, !tbaa !30
  store ptr %2, ptr %6, align 8, !tbaa !140
  %7 = load ptr, ptr %4, align 8
  %8 = load i32, ptr %5, align 4, !tbaa !30
  %9 = getelementptr inbounds nuw %"class.cv::_InputArray", ptr %7, i32 0, i32 0
  store i32 %8, ptr %9, align 8, !tbaa !141
  %10 = load ptr, ptr %6, align 8, !tbaa !140
  %11 = getelementptr inbounds nuw %"class.cv::_InputArray", ptr %7, i32 0, i32 1
  store ptr %10, ptr %11, align 8, !tbaa !48
  ret void
}

; Function Attrs: inlinehint mustprogress uwtable
define linkonce_odr hidden void @_ZN2cv11_InputArrayC2Ev(ptr noundef nonnull align 8 dereferenceable(24) %0) unnamed_addr #5 comdat align 2 {
  %2 = alloca ptr, align 8
  store ptr %0, ptr %2, align 8, !tbaa !36
  %3 = load ptr, ptr %2, align 8
  %4 = getelementptr inbounds nuw %"class.cv::_InputArray", ptr %3, i32 0, i32 2
  call void @_ZN2cv5Size_IiEC2Ev(ptr noundef nonnull align 4 dereferenceable(8) %4)
  call void @_ZN2cv11_InputArray4initEiPKv(ptr noundef nonnull align 8 dereferenceable(24) %3, i32 noundef 0, ptr noundef null)
  ret void
}

; Function Attrs: inlinehint mustprogress nounwind uwtable
define linkonce_odr hidden void @_ZN2cv11_InputArrayD2Ev(ptr noundef nonnull align 8 dereferenceable(24) %0) unnamed_addr #6 comdat align 2 {
  %2 = alloca ptr, align 8
  store ptr %0, ptr %2, align 8, !tbaa !36
  ret void
}

; Function Attrs: inlinehint mustprogress uwtable
define linkonce_odr hidden void @_ZN2cv12_OutputArrayC2ERNS_3MatE(ptr noundef nonnull align 8 dereferenceable(24) %0, ptr noundef nonnull align 8 dereferenceable(96) %1) unnamed_addr #5 comdat align 2 personality ptr @__gxx_personality_v0 {
  %3 = alloca ptr, align 8
  %4 = alloca ptr, align 8
  %5 = alloca ptr, align 8
  %6 = alloca i32, align 4
  store ptr %0, ptr %3, align 8, !tbaa !78
  store ptr %1, ptr %4, align 8, !tbaa !46
  %7 = load ptr, ptr %3, align 8
  call void @_ZN2cv11_InputArrayC2Ev(ptr noundef nonnull align 8 dereferenceable(24) %7)
  %8 = load ptr, ptr %4, align 8, !tbaa !46
  invoke void @_ZN2cv11_InputArray4initEiPKv(ptr noundef nonnull align 8 dereferenceable(24) %7, i32 noundef 33619968, ptr noundef %8)
          to label %9 unwind label %10

9:                                                ; preds = %2
  ret void

10:                                               ; preds = %2
  %11 = landingpad { ptr, i32 }
          cleanup
  %12 = extractvalue { ptr, i32 } %11, 0
  store ptr %12, ptr %5, align 8
  %13 = extractvalue { ptr, i32 } %11, 1
  store i32 %13, ptr %6, align 4
  call void @_ZN2cv11_InputArrayD2Ev(ptr noundef nonnull align 8 dereferenceable(24) %7) #3
  br label %14

14:                                               ; preds = %10
  %15 = load ptr, ptr %5, align 8
  %16 = load i32, ptr %6, align 4
  %17 = insertvalue { ptr, i32 } poison, ptr %15, 0
  %18 = insertvalue { ptr, i32 } %17, i32 %16, 1
  resume { ptr, i32 } %18
}

; Function Attrs: mustprogress uwtable
define void @_ZN2cv3dnn14dnn4_v2024122314blobFromImagesERKNS_11_InputArrayEdNS_5Size_IiEERKNS_7Scalar_IdEEbbi(ptr dead_on_unwind noalias writable sret(%"class.cv::Mat") align 8 %0, ptr noundef nonnull align 8 dereferenceable(24) %1, double noundef %2, i64 %3, ptr noundef nonnull align 8 dereferenceable(32) %4, i1 noundef zeroext %5, i1 noundef zeroext %6, i32 noundef %7) #4 personality ptr @__gxx_personality_v0 {
  %9 = alloca ptr, align 8
  %10 = alloca %"class.cv::Size_", align 4
  %11 = alloca ptr, align 8
  %12 = alloca double, align 8
  %13 = alloca ptr, align 8
  %14 = alloca i8, align 1
  %15 = alloca i8, align 1
  %16 = alloca i32, align 4
  %17 = alloca %"class.cv::utils::trace::details::Region", align 8
  %18 = alloca i1, align 1
  %19 = alloca %"class.cv::_OutputArray", align 8
  %20 = alloca ptr, align 8
  %21 = alloca i32, align 4
  %22 = alloca %"class.cv::Size_", align 4
  store ptr %0, ptr %9, align 8
  store i64 %3, ptr %10, align 4
  store ptr %1, ptr %11, align 8, !tbaa !36
  store double %2, ptr %12, align 8, !tbaa !21
  store ptr %4, ptr %13, align 8, !tbaa !27
  %23 = zext i1 %5 to i8
  store i8 %23, ptr %14, align 1, !tbaa !29
  %24 = zext i1 %6 to i8
  store i8 %24, ptr %15, align 1, !tbaa !29
  store i32 %7, ptr %16, align 4, !tbaa !30
  call void @llvm.lifetime.start.p0(i64 16, ptr %17) #3
  call void @_ZN2cv5utils5trace7details6RegionC1ERKNS3_21LocationStaticStorageE(ptr noundef nonnull align 8 dereferenceable(12) %17, ptr noundef nonnull align 8 dereferenceable(32) @_ZZN2cv3dnn14dnn4_v2024122314blobFromImagesERKNS_11_InputArrayEdNS_5Size_IiEERKNS_7Scalar_IdEEbbiE24__cv_trace_location_fn92)
  store i1 false, ptr %18, align 1
  call void @_ZN2cv3MatC1Ev(ptr noundef nonnull align 8 dereferenceable(96) %0) #3
  %25 = load ptr, ptr %11, align 8, !tbaa !36
  call void @llvm.lifetime.start.p0(i64 24, ptr %19) #3
  invoke void @_ZN2cv12_OutputArrayC2ERNS_3MatE(ptr noundef nonnull align 8 dereferenceable(24) %19, ptr noundef nonnull align 8 dereferenceable(96) %0)
          to label %26 unwind label %37

26:                                               ; preds = %8
  %27 = load double, ptr %12, align 8, !tbaa !21
  call void @llvm.memcpy.p0.p0.i64(ptr align 4 %22, ptr align 4 %10, i64 8, i1 false), !tbaa.struct !33
  %28 = load ptr, ptr %13, align 8, !tbaa !27
  %29 = load i8, ptr %14, align 1, !tbaa !29, !range !34, !noundef !35
  %30 = trunc i8 %29 to i1
  %31 = load i8, ptr %15, align 1, !tbaa !29, !range !34, !noundef !35
  %32 = trunc i8 %31 to i1
  %33 = load i32, ptr %16, align 4, !tbaa !30
  %34 = load i64, ptr %22, align 4
  invoke void @_ZN2cv3dnn14dnn4_v2024122314blobFromImagesERKNS_11_InputArrayERKNS_12_OutputArrayEdNS_5Size_IiEERKNS_7Scalar_IdEEbbi(ptr noundef nonnull align 8 dereferenceable(24) %25, ptr noundef nonnull align 8 dereferenceable(24) %19, double noundef %27, i64 %34, ptr noundef nonnull align 8 dereferenceable(32) %28, i1 noundef zeroext %30, i1 noundef zeroext %32, i32 noundef %33)
          to label %35 unwind label %41

35:                                               ; preds = %26
  call void @_ZN2cv11_InputArrayD2Ev(ptr noundef nonnull align 8 dereferenceable(24) %19) #3
  call void @llvm.lifetime.end.p0(i64 24, ptr %19) #3
  store i1 true, ptr %18, align 1
  %36 = load i1, ptr %18, align 1
  br i1 %36, label %47, label %46

37:                                               ; preds = %8
  %38 = landingpad { ptr, i32 }
          cleanup
  %39 = extractvalue { ptr, i32 } %38, 0
  store ptr %39, ptr %20, align 8
  %40 = extractvalue { ptr, i32 } %38, 1
  store i32 %40, ptr %21, align 4
  br label %45

41:                                               ; preds = %26
  %42 = landingpad { ptr, i32 }
          cleanup
  %43 = extractvalue { ptr, i32 } %42, 0
  store ptr %43, ptr %20, align 8
  %44 = extractvalue { ptr, i32 } %42, 1
  store i32 %44, ptr %21, align 4
  call void @_ZN2cv11_InputArrayD2Ev(ptr noundef nonnull align 8 dereferenceable(24) %19) #3
  br label %45

45:                                               ; preds = %41, %37
  call void @llvm.lifetime.end.p0(i64 24, ptr %19) #3
  call void @_ZN2cv3MatD1Ev(ptr noundef nonnull align 8 dereferenceable(96) %0) #3
  call void @_ZN2cv5utils5trace7details6RegionD2Ev(ptr noundef nonnull align 8 dereferenceable(12) %17) #3
  call void @llvm.lifetime.end.p0(i64 16, ptr %17) #3
  br label %48

46:                                               ; preds = %35
  call void @_ZN2cv3MatD1Ev(ptr noundef nonnull align 8 dereferenceable(96) %0) #3
  br label %47

47:                                               ; preds = %46, %35
  call void @_ZN2cv5utils5trace7details6RegionD2Ev(ptr noundef nonnull align 8 dereferenceable(12) %17) #3
  call void @llvm.lifetime.end.p0(i64 16, ptr %17) #3
  ret void

48:                                               ; preds = %45
  %49 = load ptr, ptr %20, align 8
  %50 = load i32, ptr %21, align 4
  %51 = insertvalue { ptr, i32 } poison, ptr %49, 0
  %52 = insertvalue { ptr, i32 } %51, i32 %50, 1
  resume { ptr, i32 } %52
}