; Function Attrs: mustprogress uwtable
define void @_ZN2cv3dnn14dnn4_v2024122314blobFromImagesERKNS_11_InputArrayEdNS_5Size_IiEERKNS_7Scalar_IdEEbbi(ptr dead_on_unwind noalias writable sret(%"class.cv::Mat") align 8 %0, ptr noundef nonnull align 8 dereferenceable(24) %1, double noundef %2, i64 %3, ptr noundef nonnull align 8 dereferenceable(32) %4, i1 noundef zeroext %5, i1 noundef zeroext %6, i32 noundef %7) local_unnamed_addr #6 personality ptr @__gxx_personality_v0 {
  %9 = alloca %"class.cv::utils::trace::details::Region", align 8
  %10 = alloca %"class.cv::_OutputArray", align 8
  call void @llvm.lifetime.start.p0(i64 16, ptr nonnull %9) #21
  call void @_ZN2cv5utils5trace7details6RegionC1ERKNS3_21LocationStaticStorageE(ptr noundef nonnull align 8 dereferenceable(12) %9, ptr noundef nonnull align 8 dereferenceable(32) @_ZZN2cv3dnn14dnn4_v2024122314blobFromImagesERKNS_11_InputArrayEdNS_5Size_IiEERKNS_7Scalar_IdEEbbiE24__cv_trace_location_fn92)
  call void @_ZN2cv3MatC1Ev(ptr noundef nonnull align 8 dereferenceable(96) %0) #21
  call void @llvm.lifetime.start.p0(i64 24, ptr nonnull %10) #21
  %11 = getelementptr inbounds nuw i8, ptr %10, i64 8
  %12 = getelementptr inbounds nuw i8, ptr %10, i64 16
  store i64 0, ptr %12, align 8
  store i32 33619968, ptr %10, align 8, !tbaa !61
  store ptr %0, ptr %11, align 8, !tbaa !28
  invoke void @_ZN2cv3dnn14dnn4_v2024122314blobFromImagesERKNS_11_InputArrayERKNS_12_OutputArrayEdNS_5Size_IiEERKNS_7Scalar_IdEEbbi(ptr noundef nonnull align 8 dereferenceable(24) %1, ptr noundef nonnull align 8 dereferenceable(24) %10, double noundef %2, i64 %3, ptr noundef nonnull align 8 dereferenceable(32) %4, i1 noundef zeroext %5, i1 noundef zeroext %6, i32 noundef %7)
          to label %13 unwind label %20

13:                                               ; preds = %8
  call void @llvm.lifetime.end.p0(i64 24, ptr nonnull %10) #21
  %14 = getelementptr inbounds nuw i8, ptr %9, i64 8
  %15 = load i32, ptr %14, align 8, !tbaa !62
  %.not.i = icmp eq i32 %15, 0
  br i1 %.not.i, label %_ZN2cv5utils5trace7details6RegionD2Ev.exit, label %16

16:                                               ; preds = %13
  invoke void @_ZN2cv5utils5trace7details6Region7destroyEv(ptr noundef nonnull align 8 dereferenceable(12) %9)
          to label %_ZN2cv5utils5trace7details6RegionD2Ev.exit unwind label %17

17:                                               ; preds = %16
  %18 = landingpad { ptr, i32 }
          catch ptr null
  %19 = extractvalue { ptr, i32 } %18, 0
  call void @__clang_call_terminate(ptr %19) #22
  unreachable

_ZN2cv5utils5trace7details6RegionD2Ev.exit:       ; preds = %13, %16
  call void @llvm.lifetime.end.p0(i64 16, ptr nonnull %9) #21
  ret void

20:                                               ; preds = %8
  %21 = landingpad { ptr, i32 }
          cleanup
  call void @llvm.lifetime.end.p0(i64 24, ptr nonnull %10) #21
  call void @_ZN2cv3MatD1Ev(ptr noundef nonnull align 8 dereferenceable(96) %0) #21
  call void @_ZN2cv5utils5trace7details6RegionD2Ev(ptr noundef nonnull align 8 dereferenceable(12) %9) #21
  call void @llvm.lifetime.end.p0(i64 16, ptr nonnull %9) #21
  resume { ptr, i32 } %21
}